target datalayout = "e-m:e-p270:32:32-p271:32:32-p272:64:64-i64:64-i128:128-f80:128-n8:16:32:64-S128"
target triple = "x86_64-pc-linux-gnu"

%struct.cli_ctx_tag = type { ptr, ptr, ptr, ptr, ptr, ptr, ptr, i64, ptr, i32, i32, ptr, i32, i32, ptr, [16 x i8], ptr, ptr, ptr, ptr, ptr, ptr, %struct.timeval, i8, i8 }
%struct.timeval = type { i64, i64 }
%struct.cl_engine = type { i32, i32, i32, [2 x i32], i32, i32, i32, ptr, i32, i64, i32, i32, i64, i64, i32, i32, i32, i32, ptr, ptr, ptr, ptr, ptr, ptr, ptr, ptr, ptr, ptr, ptr, ptr, ptr, ptr, ptr, ptr, ptr, ptr, ptr, i64, ptr, %struct.crtmgr, ptr, ptr, ptr, ptr, ptr, ptr, ptr, ptr, ptr, ptr, ptr, ptr, ptr, ptr, ptr, ptr, ptr, %struct.cli_all_bc, [7 x ptr], [7 x i32], i32, i32, i32, i32, i64, i64, i64, i64, i64, ptr, ptr, ptr, ptr, ptr, ptr, ptr, ptr, ptr, i32, i32, i32, i64, i64, i64, ptr }
%struct.crtmgr = type { ptr, i32 }
%struct.cli_all_bc = type { ptr, i32, ptr, %struct.cli_environment, i32 }
%struct.cli_environment = type { i32, i32, i32, i32, i32, i32, i32, [65 x i8], [65 x i8], [65 x i8], [65 x i8], [65 x i8], [65 x i8], [65 x i8], i8, i8, i8, i8, i8, i8, i8, i8, i8 }
%struct.cl_scan_options = type { i32, i32, i32, i32, i32 }

@.str.258 = private unnamed_addr constant [10 x i8] c"HasMacros\00", align 1
@.str.259 = private unnamed_addr constant [15 x i8] c"MacroLanguages\00", align 1
@.str.260 = private unnamed_addr constant [4 x i8] c"VBA\00", align 1
@.str.262 = private unnamed_addr constant [35 x i8] c"Heuristics.OLE2.ContainsMacros.VBA\00", align 1
@.str.264 = private unnamed_addr constant [4 x i8] c"dir\00", align 1
@.str.265 = private unnamed_addr constant [75 x i8] c"cli_ole2_tempdir_scan_vba_new: uniq_get('dir') failed with ret code (%d)!\0A\00", align 1
@.str.266 = private unnamed_addr constant [6 x i8] c"%s_%u\00", align 1
@.str.267 = private unnamed_addr constant [51 x i8] c"cli_ole2_tempdir_scan_vba_new: Found dir file: %s\0A\00", align 1
@.str.268 = private unnamed_addr constant [91 x i8] c"cli_ole2_tempdir_scan_vba_new: Failed to read dir from %s, trying others (error: %s (%d))\0A\00", align 1
@.str.269 = private unnamed_addr constant [88 x i8] c"[cli_ole2_tempdir_scan_vba_new] Failed to add \22VBA\22 entry to MacroLanguages JSON array\0A\00", align 1
@.str.270 = private unnamed_addr constant [90 x i8] c"cli_ole2_tempdir_scan_vba_new: Failed to seek to beginning of temporary VBA project file\0A\00", align 1

; Function Attrs: nounwind uwtable
define internal i32 @cli_ole2_tempdir_scan_vba_new(ptr noundef %0, ptr noundef %1, ptr noundef %2, ptr noundef %3) #0 {
  %5 = alloca i32, align 4
  %6 = alloca ptr, align 8
  %7 = alloca ptr, align 8
  %8 = alloca ptr, align 8
  %9 = alloca ptr, align 8
  %10 = alloca i32, align 4
  %11 = alloca i32, align 4
  %12 = alloca ptr, align 8
  %13 = alloca [4096 x i8], align 16
  %14 = alloca [4096 x i8], align 16
  %15 = alloca i32, align 4
  %16 = alloca ptr, align 8
  %17 = alloca ptr, align 8
  store ptr %0, ptr %6, align 8
  store ptr %1, ptr %7, align 8
  store ptr %2, ptr %8, align 8
  store ptr %3, ptr %9, align 8
  store i32 0, ptr %10, align 4
  store i32 0, ptr %11, align 4
  store ptr null, ptr %12, align 8
  store i32 -1, ptr %15, align 4
  store ptr null, ptr %16, align 8
  %18 = load ptr, ptr %8, align 8
  %19 = call i32 @uniq_get(ptr noundef %18, ptr noundef @.str.264, i32 noundef 3, ptr noundef %12, ptr noundef %11)
  store i32 %19, ptr %10, align 4
  %20 = icmp ne i32 0, %19
  br i1 %20, label %21, label %24

21:                                               ; preds = %4
  %22 = load i32, ptr %10, align 4
  call void (ptr, ...) @cli_dbgmsg(ptr noundef @.str.265, i32 noundef %22)
  %23 = load i32, ptr %10, align 4
  store i32 %23, ptr %5, align 4
  br label %180

24:                                               ; preds = %4
  br label %25

25:                                               ; preds = %153, %68, %24
  %26 = load i32, ptr %11, align 4
  %27 = icmp ne i32 %26, 0
  br i1 %27, label %28, label %156

28:                                               ; preds = %25
  %29 = getelementptr inbounds [4096 x i8], ptr %14, i64 0, i64 0
  %30 = load ptr, ptr %12, align 8
  %31 = load i32, ptr %11, align 4
  %32 = call i32 (ptr, i64, ptr, ...) @snprintf(ptr noundef %29, i64 noundef 4096, ptr noundef @.str.266, ptr noundef %30, i32 noundef %31) #11
  %33 = getelementptr inbounds [4096 x i8], ptr %14, i64 0, i64 4095
  store i8 0, ptr %33, align 1
  %34 = getelementptr inbounds [4096 x i8], ptr %14, i64 0, i64 0
  %35 = load ptr, ptr %6, align 8
  %36 = getelementptr inbounds [4096 x i8], ptr %13, i64 0, i64 0
  %37 = call i32 @find_file(ptr noundef %34, ptr noundef %35, ptr noundef %36, i64 noundef 4096)
  %38 = icmp eq i32 0, %37
  br i1 %38, label %39, label %153

39:                                               ; preds = %28
  %40 = getelementptr inbounds [4096 x i8], ptr %13, i64 0, i64 0
  call void (ptr, ...) @cli_dbgmsg(ptr noundef @.str.267, ptr noundef %40)
  %41 = load ptr, ptr %7, align 8
  %42 = getelementptr inbounds [4096 x i8], ptr %13, i64 0, i64 0
  %43 = load ptr, ptr %8, align 8
  %44 = load ptr, ptr %12, align 8
  %45 = load i32, ptr %11, align 4
  %46 = load ptr, ptr %9, align 8
  %47 = call i32 @cli_vba_readdir_new(ptr noundef %41, ptr noundef %42, ptr noundef %43, ptr noundef %44, i32 noundef %45, ptr noundef %15, ptr noundef %46, ptr noundef %16)
  store i32 %47, ptr %10, align 4
  %48 = icmp ne i32 %47, 0
  br i1 %48, label %49, label %71

49:                                               ; preds = %39
  %50 = getelementptr inbounds [4096 x i8], ptr %13, i64 0, i64 0
  %51 = load i32, ptr %10, align 4
  %52 = call ptr @cl_strerror(i32 noundef %51)
  %53 = load i32, ptr %10, align 4
  call void (ptr, ...) @cli_dbgmsg(ptr noundef @.str.268, ptr noundef %50, ptr noundef %52, i32 noundef %53)
  %54 = load ptr, ptr %16, align 8
  %55 = icmp ne ptr %54, null
  br i1 %55, label %56, label %68

56:                                               ; preds = %49
  %57 = load ptr, ptr %7, align 8
  %58 = getelementptr inbounds %struct.cli_ctx_tag, ptr %57, i32 0, i32 6
  %59 = load ptr, ptr %58, align 8
  %60 = getelementptr inbounds %struct.cl_engine, ptr %59, i32 0, i32 8
  %61 = load i32, ptr %60, align 8
  %62 = icmp ne i32 %61, 0
  br i1 %62, label %66, label %63

63:                                               ; preds = %56
  %64 = load ptr, ptr %16, align 8
  %65 = call i32 @remove(ptr noundef %64) #11
  br label %66

66:                                               ; preds = %63, %56
  %67 = load ptr, ptr %16, align 8
  call void @free(ptr noundef %67) #11
  store ptr null, ptr %16, align 8
  br label %68

68:                                               ; preds = %66, %49
  store i32 0, ptr %10, align 4
  %69 = load i32, ptr %11, align 4
  %70 = add i32 %69, -1
  store i32 %70, ptr %11, align 4
  br label %25

71:                                               ; preds = %39
  %72 = load ptr, ptr %9, align 8
  %73 = load i32, ptr %72, align 4
  %74 = icmp ne i32 %73, 0
  br i1 %74, label %75, label %104

75:                                               ; preds = %71
  %76 = load ptr, ptr %7, align 8
  %77 = getelementptr inbounds %struct.cli_ctx_tag, ptr %76, i32 0, i32 8
  %78 = load ptr, ptr %77, align 8
  %79 = getelementptr inbounds %struct.cl_scan_options, ptr %78, i32 0, i32 0
  %80 = load i32, ptr %79, align 4
  %81 = and i32 %80, 2
  %82 = icmp ne i32 %81, 0
  br i1 %82, label %83, label %104

83:                                               ; preds = %75
  %84 = load ptr, ptr %7, align 8
  %85 = getelementptr inbounds %struct.cli_ctx_tag, ptr %84, i32 0, i32 21
  %86 = load ptr, ptr %85, align 8
  %87 = icmp ne ptr %86, null
  br i1 %87, label %88, label %104

88:                                               ; preds = %83
  %89 = load ptr, ptr %7, align 8
  %90 = getelementptr inbounds %struct.cli_ctx_tag, ptr %89, i32 0, i32 21
  %91 = load ptr, ptr %90, align 8
  %92 = call i32 @cli_jsonbool(ptr noundef %91, ptr noundef @.str.258, i32 noundef 1)
  %93 = load ptr, ptr %7, align 8
  %94 = getelementptr inbounds %struct.cli_ctx_tag, ptr %93, i32 0, i32 21
  %95 = load ptr, ptr %94, align 8
  %96 = call ptr @cli_jsonarray(ptr noundef %95, ptr noundef @.str.259)
  store ptr %96, ptr %17, align 8
  %97 = load ptr, ptr %17, align 8
  %98 = icmp ne ptr %97, null
  br i1 %98, label %99, label %102

99:                                               ; preds = %88
  %100 = load ptr, ptr %17, align 8
  %101 = call i32 @cli_jsonstr(ptr noundef %100, ptr noundef null, ptr noundef @.str.260)
  br label %103

102:                                              ; preds = %88
  call void (ptr, ...) @cli_dbgmsg(ptr noundef @.str.269)
  br label %103

103:                                              ; preds = %102, %99
  br label %104

104:                                              ; preds = %103, %83, %75, %71
  %105 = load ptr, ptr %7, align 8
  %106 = getelementptr inbounds %struct.cli_ctx_tag, ptr %105, i32 0, i32 8
  %107 = load ptr, ptr %106, align 8
  %108 = getelementptr inbounds %struct.cl_scan_options, ptr %107, i32 0, i32 2
  %109 = load i32, ptr %108, align 4
  %110 = and i32 %109, 32
  %111 = icmp ne i32 %110, 0
  br i1 %111, label %112, label %123

112:                                              ; preds = %104
  %113 = load ptr, ptr %9, align 8
  %114 = load i32, ptr %113, align 4
  %115 = icmp ne i32 %114, 0
  br i1 %115, label %116, label %123

116:                                              ; preds = %112
  %117 = load ptr, ptr %7, align 8
  %118 = call i32 @cli_append_potentially_unwanted(ptr noundef %117, ptr noundef @.str.262)
  store i32 %118, ptr %10, align 4
  %119 = load i32, ptr %10, align 4
  %120 = icmp eq i32 %119, 1
  br i1 %120, label %121, label %122

121:                                              ; preds = %116
  br label %157

122:                                              ; preds = %116
  br label %123

123:                                              ; preds = %122, %112, %104
  %124 = load i32, ptr %15, align 4
  %125 = call i64 @lseek(i32 noundef %124, i64 noundef 0, i32 noundef 0) #11
  %126 = icmp ne i64 %125, 0
  br i1 %126, label %127, label %128

127:                                              ; preds = %123
  call void (ptr, ...) @cli_dbgmsg(ptr noundef @.str.270)
  store i32 13, ptr %10, align 4
  br label %157

128:                                              ; preds = %123
  %129 = load i32, ptr %15, align 4
  %130 = load ptr, ptr %7, align 8
  %131 = call i32 @cli_scan_desc(i32 noundef %129, ptr noundef %130, i32 noundef 538, i1 noundef zeroext false, ptr noundef null, i32 noundef 1, ptr noundef null, ptr noundef null, i32 noundef 0)
  store i32 %131, ptr %10, align 4
  %132 = load i32, ptr %10, align 4
  %133 = icmp ne i32 0, %132
  br i1 %133, label %134, label %135

134:                                              ; preds = %128
  br label %157

135:                                              ; preds = %128
  %136 = load i32, ptr %15, align 4
  %137 = call i32 @close(i32 noundef %136)
  store i32 -1, ptr %15, align 4
  %138 = load ptr, ptr %16, align 8
  %139 = icmp ne ptr %138, null
  br i1 %139, label %140, label %152

140:                                              ; preds = %135
  %141 = load ptr, ptr %7, align 8
  %142 = getelementptr inbounds %struct.cli_ctx_tag, ptr %141, i32 0, i32 6
  %143 = load ptr, ptr %142, align 8
  %144 = getelementptr inbounds %struct.cl_engine, ptr %143, i32 0, i32 8
  %145 = load i32, ptr %144, align 8
  %146 = icmp ne i32 %145, 0
  br i1 %146, label %150, label %147

147:                                              ; preds = %140
  %148 = load ptr, ptr %16, align 8
  %149 = call i32 @remove(ptr noundef %148) #11
  br label %150

150:                                              ; preds = %147, %140
  %151 = load ptr, ptr %16, align 8
  call void @free(ptr noundef %151) #11
  store ptr null, ptr %16, align 8
  br label %152

152:                                              ; preds = %150, %135
  br label %153

153:                                              ; preds = %152, %28
  %154 = load i32, ptr %11, align 4
  %155 = add i32 %154, -1
  store i32 %155, ptr %11, align 4
  br label %25

156:                                              ; preds = %25
  br label %157

157:                                              ; preds = %156, %134, %127, %121
  %158 = load i32, ptr %15, align 4
  %159 = icmp ne i32 %158, -1
  br i1 %159, label %160, label %163

160:                                              ; preds = %157
  %161 = load i32, ptr %15, align 4
  %162 = call i32 @close(i32 noundef %161)
  store i32 -1, ptr %15, align 4
  br label %163

163:                                              ; preds = %160, %157
  %164 = load ptr, ptr %16, align 8
  %165 = icmp ne ptr %164, null
  br i1 %165, label %166, label %178

166:                                              ; preds = %163
  %167 = load ptr, ptr %7, align 8
  %168 = getelementptr inbounds %struct.cli_ctx_tag, ptr %167, i32 0, i32 6
  %169 = load ptr, ptr %168, align 8
  %170 = getelementptr inbounds %struct.cl_engine, ptr %169, i32 0, i32 8
  %171 = load i32, ptr %170, align 8
  %172 = icmp ne i32 %171, 0
  br i1 %172, label %176, label %173

173:                                              ; preds = %166
  %174 = load ptr, ptr %16, align 8
  %175 = call i32 @remove(ptr noundef %174) #11
  br label %176

176:                                              ; preds = %173, %166
  %177 = load ptr, ptr %16, align 8
  call void @free(ptr noundef %177) #11
  store ptr null, ptr %16, align 8
  br label %178

178:                                              ; preds = %176, %163
  %179 = load i32, ptr %10, align 4
  store i32 %179, ptr %5, align 4
  br label %180

180:                                              ; preds = %178, %21
  %181 = load i32, ptr %5, align 4
  ret i32 %181
}