; Function Attrs: nounwind uwtable
define internal fastcc i32 @cli_ole2_tempdir_scan_vba_new(ptr noundef nonnull %0, ptr noundef %1, ptr noundef nonnull %2, ptr noundef nonnull %3) unnamed_addr #0 {
  %5 = alloca i32, align 4
  %6 = alloca ptr, align 8
  %7 = alloca [4096 x i8], align 16
  %8 = alloca [4096 x i8], align 16
  %9 = alloca i32, align 4
  %10 = alloca ptr, align 8
  store i32 0, ptr %5, align 4
  store ptr null, ptr %6, align 8
  store i32 -1, ptr %9, align 4
  store ptr null, ptr %10, align 8
  %11 = call i32 @uniq_get(ptr noundef nonnull %2, ptr noundef nonnull @.str.264, i32 noundef 3, ptr noundef nonnull %6, ptr noundef nonnull %5) #16
  %.not = icmp eq i32 %11, 0
  br i1 %.not, label %thread-pre-split, label %12

12:                                               ; preds = %4
  call void (ptr, ...) @cli_dbgmsg(ptr noundef nonnull @.str.265, i32 noundef %11) #16
  br label %89

thread-pre-split:                                 ; preds = %4
  %.pr = load i32, ptr %5, align 4
  %.not4057 = icmp eq i32 %.pr, 0
  br i1 %.not4057, label %.loopexit, label %.lr.ph

.lr.ph:                                           ; preds = %thread-pre-split
  %13 = getelementptr inbounds nuw i8, ptr %8, i64 4095
  %14 = getelementptr inbounds nuw i8, ptr %1, i64 48
  %15 = getelementptr inbounds nuw i8, ptr %1, i64 64
  %16 = getelementptr inbounds nuw i8, ptr %1, i64 160
  br label %17

17:                                               ; preds = %.lr.ph, %.backedge
  %18 = phi i32 [ %.pr, %.lr.ph ], [ %storemerge, %.backedge ]
  %19 = load ptr, ptr %6, align 8
  %20 = call i32 (ptr, i64, ptr, ...) @snprintf(ptr noundef nonnull dereferenceable(1) %8, i64 noundef 4096, ptr noundef nonnull @.str.266, ptr noundef %19, i32 noundef %18) #16
  store i8 0, ptr %13, align 1
  %21 = call i32 @find_file(ptr noundef nonnull %8, ptr noundef nonnull %0, ptr noundef nonnull %7, i64 noundef 4096)
  %22 = icmp eq i32 %21, 0
  br i1 %22, label %23, label %.backedge

23:                                               ; preds = %17
  call void (ptr, ...) @cli_dbgmsg(ptr noundef nonnull @.str.267, ptr noundef nonnull %7) #16
  %24 = load ptr, ptr %6, align 8
  %25 = load i32, ptr %5, align 4
  %26 = call i32 @cli_vba_readdir_new(ptr noundef %1, ptr noundef nonnull %7, ptr noundef nonnull %2, ptr noundef %24, i32 noundef %25, ptr noundef nonnull %9, ptr noundef nonnull %3, ptr noundef nonnull %10) #16
  %.not41 = icmp eq i32 %26, 0
  br i1 %.not41, label %35, label %27

27:                                               ; preds = %23
  %28 = call ptr @cl_strerror(i32 noundef %26) #16
  call void (ptr, ...) @cli_dbgmsg(ptr noundef nonnull @.str.268, ptr noundef nonnull %7, ptr noundef %28, i32 noundef %26) #16
  %29 = load ptr, ptr %10, align 8
  %.not55 = icmp eq ptr %29, null
  br i1 %.not55, label %.backedge, label %30

30:                                               ; preds = %27
  %31 = load ptr, ptr %14, align 8
  %32 = getelementptr inbounds nuw i8, ptr %31, i64 40
  %33 = load i32, ptr %32, align 8
  %.not56 = icmp eq i32 %33, 0
  br i1 %.not56, label %.backedge.sink.split.sink.split, label %.backedge.sink.split

.backedge.sink.split.sink.split:                  ; preds = %30, %71
  %.sink64 = phi ptr [ %70, %71 ], [ %29, %30 ]
  %34 = call i32 @remove(ptr noundef nonnull %.sink64) #16
  %.pre = load ptr, ptr %10, align 8
  br label %.backedge.sink.split

.backedge.sink.split:                             ; preds = %.backedge.sink.split.sink.split, %30, %71
  %.sink = phi ptr [ %70, %71 ], [ %29, %30 ], [ %.pre, %.backedge.sink.split.sink.split ]
  call void @free(ptr noundef %.sink) #16
  store ptr null, ptr %10, align 8
  br label %.backedge

.backedge:                                        ; preds = %.backedge.sink.split, %17, %67, %27
  %storemerge.in = load i32, ptr %5, align 4
  %storemerge = add i32 %storemerge.in, -1
  store i32 %storemerge, ptr %5, align 4
  %.not40 = icmp eq i32 %storemerge, 0
  br i1 %.not40, label %.loopexit, label %17

35:                                               ; preds = %23
  %36 = load i32, ptr %3, align 4
  %.not42 = icmp eq i32 %36, 0
  br i1 %.not42, label %50, label %37

37:                                               ; preds = %35
  %38 = load ptr, ptr %15, align 8
  %39 = load i32, ptr %38, align 4
  %40 = and i32 %39, 2
  %.not43 = icmp eq i32 %40, 0
  br i1 %.not43, label %50, label %41

41:                                               ; preds = %37
  %42 = load ptr, ptr %16, align 8
  %.not44 = icmp eq ptr %42, null
  br i1 %.not44, label %50, label %43

43:                                               ; preds = %41
  %44 = call i32 @cli_jsonbool(ptr noundef nonnull %42, ptr noundef nonnull @.str.258, i32 noundef 1) #16
  %45 = load ptr, ptr %16, align 8
  %46 = call ptr @cli_jsonarray(ptr noundef %45, ptr noundef nonnull @.str.259) #16
  %.not45 = icmp eq ptr %46, null
  br i1 %.not45, label %49, label %47

47:                                               ; preds = %43
  %48 = call i32 @cli_jsonstr(ptr noundef nonnull %46, ptr noundef null, ptr noundef nonnull @.str.260) #16
  br label %50

49:                                               ; preds = %43
  call void (ptr, ...) @cli_dbgmsg(ptr noundef nonnull @.str.269) #16
  br label %50

50:                                               ; preds = %47, %49, %41, %37, %35
  %51 = load ptr, ptr %15, align 8
  %52 = getelementptr inbounds nuw i8, ptr %51, i64 8
  %53 = load i32, ptr %52, align 4
  %54 = and i32 %53, 32
  %.not46 = icmp eq i32 %54, 0
  br i1 %.not46, label %60, label %55

55:                                               ; preds = %50
  %56 = load i32, ptr %3, align 4
  %.not47 = icmp eq i32 %56, 0
  br i1 %.not47, label %60, label %57

57:                                               ; preds = %55
  %58 = call i32 @cli_append_potentially_unwanted(ptr noundef nonnull %1, ptr noundef nonnull @.str.262) #16
  %59 = icmp eq i32 %58, 1
  br i1 %59, label %.loopexit, label %60

60:                                               ; preds = %57, %55, %50
  %61 = load i32, ptr %9, align 4
  %62 = call i64 @lseek(i32 noundef %61, i64 noundef 0, i32 noundef 0) #16
  %.not48 = icmp eq i64 %62, 0
  br i1 %.not48, label %64, label %63

63:                                               ; preds = %60
  call void (ptr, ...) @cli_dbgmsg(ptr noundef nonnull @.str.270) #16
  br label %.loopexit

64:                                               ; preds = %60
  %65 = load i32, ptr %9, align 4
  %66 = call i32 @cli_scan_desc(i32 noundef %65, ptr noundef nonnull %1, i32 noundef 538, i1 noundef zeroext false, ptr noundef null, i32 noundef 1, ptr noundef null, ptr noundef null, i32 noundef 0) #16
  %.not49 = icmp eq i32 %66, 0
  br i1 %.not49, label %67, label %.loopexit

67:                                               ; preds = %64
  %68 = load i32, ptr %9, align 4
  %69 = call i32 @close(i32 noundef %68) #16
  store i32 -1, ptr %9, align 4
  %70 = load ptr, ptr %10, align 8
  %.not50 = icmp eq ptr %70, null
  br i1 %.not50, label %.backedge, label %71

71:                                               ; preds = %67
  %72 = load ptr, ptr %14, align 8
  %73 = getelementptr inbounds nuw i8, ptr %72, i64 40
  %74 = load i32, ptr %73, align 8
  %.not51 = icmp eq i32 %74, 0
  br i1 %.not51, label %.backedge.sink.split.sink.split, label %.backedge.sink.split

.loopexit:                                        ; preds = %57, %64, %.backedge, %thread-pre-split, %63
  %.2 = phi i32 [ 13, %63 ], [ 0, %thread-pre-split ], [ 1, %57 ], [ %66, %64 ], [ 0, %.backedge ]
  %75 = load i32, ptr %9, align 4
  %.not52 = icmp eq i32 %75, -1
  br i1 %.not52, label %78, label %76

76:                                               ; preds = %.loopexit
  %77 = call i32 @close(i32 noundef %75) #16
  store i32 -1, ptr %9, align 4
  br label %78

78:                                               ; preds = %76, %.loopexit
  %79 = load ptr, ptr %10, align 8
  %.not53 = icmp eq ptr %79, null
  br i1 %.not53, label %89, label %80

80:                                               ; preds = %78
  %81 = getelementptr inbounds nuw i8, ptr %1, i64 48
  %82 = load ptr, ptr %81, align 8
  %83 = getelementptr inbounds nuw i8, ptr %82, i64 40
  %84 = load i32, ptr %83, align 8
  %.not54 = icmp eq i32 %84, 0
  br i1 %.not54, label %85, label %87

85:                                               ; preds = %80
  %86 = call i32 @remove(ptr noundef nonnull %79) #16
  %.pre63 = load ptr, ptr %10, align 8
  br label %87

87:                                               ; preds = %85, %80
  %88 = phi ptr [ %.pre63, %85 ], [ %79, %80 ]
  call void @free(ptr noundef %88) #16
  br label %89

89:                                               ; preds = %78, %87, %12
  %.0 = phi i32 [ %11, %12 ], [ %.2, %87 ], [ %.2, %78 ]
  ret i32 %.0
}